; Function Attrs: mustprogress uwtable
define hidden void @_ZN4cvc58internal6theory11quantifiers13EqualityQueryC2ERNS0_3EnvERNS2_16QuantifiersStateEPNS2_15FirstOrderModelE(ptr noundef nonnull align 8 dereferenceable(184) %this, ptr noundef nonnull align 8 dereferenceable(576) %env, ptr noundef nonnull align 8 dereferenceable(248) %qs, ptr noundef %m) unnamed_addr #3 align 2 personality ptr @__gxx_personality_v0 {
entry:
  tail call void @_ZN4cvc58internal6theory15QuantifiersUtilC2ERNS0_3EnvE(ptr noundef nonnull align 8 dereferenceable(16) %this, ptr noundef nonnull align 8 dereferenceable(576) %env)
  store ptr getelementptr inbounds ({ [9 x ptr] }, ptr @_ZTVN4cvc58internal6theory11quantifiers13EqualityQueryE, i64 0, i32 0, i64 2), ptr %this, align 8
  %d_qstate = getelementptr inbounds i8, ptr %this, i64 16
  store ptr %qs, ptr %d_qstate, align 8
  %d_model = getelementptr inbounds i8, ptr %this, i64 24
  store ptr %m, ptr %d_model, align 8
  %call = tail call noundef ptr @_ZNK4cvc58internal6EnvObj7contextEv(ptr noundef nonnull align 8 dereferenceable(16) %this)
  %d_eqi_counter = getelementptr inbounds i8, ptr %this, i64 32
  tail call void @_ZN4cvc57context10ContextObjC2EPNS0_7ContextE(ptr noundef nonnull align 8 dereferenceable(40) %d_eqi_counter, ptr noundef %call)
  store ptr getelementptr inbounds ({ [6 x ptr] }, ptr @_ZTVN4cvc57context3CDOIjEE, i64 0, i32 0, i64 2), ptr %d_eqi_counter, align 8
  %d_data.i = getelementptr inbounds i8, ptr %this, i64 72
  store i32 0, ptr %d_data.i, align 8
  %0 = getelementptr inbounds i8, ptr %this, i64 88
  store i32 0, ptr %0, align 8
  %_M_parent.i.i.i.i.i = getelementptr inbounds i8, ptr %this, i64 96
  store ptr null, ptr %_M_parent.i.i.i.i.i, align 8
  %_M_left.i.i.i.i.i = getelementptr inbounds i8, ptr %this, i64 104
  store ptr %0, ptr %_M_left.i.i.i.i.i, align 8
  %_M_right.i.i.i.i.i = getelementptr inbounds i8, ptr %this, i64 112
  store ptr %0, ptr %_M_right.i.i.i.i.i, align 8
  %_M_node_count.i.i.i.i.i = getelementptr inbounds i8, ptr %this, i64 120
  store i64 0, ptr %_M_node_count.i.i.i.i.i, align 8
  %1 = getelementptr inbounds i8, ptr %this, i64 136
  store i32 0, ptr %1, align 8
  %_M_parent.i.i.i.i.i1 = getelementptr inbounds i8, ptr %this, i64 144
  store ptr null, ptr %_M_parent.i.i.i.i.i1, align 8
  %_M_left.i.i.i.i.i2 = getelementptr inbounds i8, ptr %this, i64 152
  store ptr %1, ptr %_M_left.i.i.i.i.i2, align 8
  %_M_right.i.i.i.i.i3 = getelementptr inbounds i8, ptr %this, i64 160
  store ptr %1, ptr %_M_right.i.i.i.i.i3, align 8
  %_M_node_count.i.i.i.i.i4 = getelementptr inbounds i8, ptr %this, i64 168
  tail call void @llvm.memset.p0.i64(ptr noundef nonnull align 8 dereferenceable(16) %_M_node_count.i.i.i.i.i4, i8 0, i64 16, i1 false)
  ret void
}